target datalayout = "e-m:e-p270:32:32-p271:32:32-p272:64:64-i64:64-i128:128-f80:128-n8:16:32:64-S128"
target triple = "x86_64-pc-linux-gnu"

%struct._lv_lru_rb_t = type { %struct._lv_cache_t, %struct._lv_rb_t, %struct.lv_ll_t, ptr }
%struct._lv_cache_t = type { ptr, i32, i32, i32, %struct._lv_cache_ops_t, i32, ptr }
%struct._lv_cache_ops_t = type { ptr, ptr, ptr }
%struct._lv_rb_t = type { ptr, ptr, i64 }
%struct.lv_ll_t = type { i32, ptr, ptr }
%struct._lv_rb_node_t = type { ptr, ptr, ptr, i32, ptr }

; Function Attrs: inlinehint nounwind uwtable
define internal ptr @get_lru_node(ptr noundef %0, ptr noundef %1) #3 {
  %3 = alloca ptr, align 8
  %4 = alloca ptr, align 8
  store ptr %0, ptr %3, align 8, !tbaa !3
  store ptr %1, ptr %4, align 8, !tbaa !3
  %5 = load ptr, ptr %4, align 8, !tbaa !3
  %6 = getelementptr inbounds nuw %struct._lv_rb_node_t, ptr %5, i32 0, i32 4
  %7 = load ptr, ptr %6, align 8, !tbaa !21
  %8 = load ptr, ptr %3, align 8, !tbaa !3
  %9 = getelementptr inbounds nuw %struct._lv_lru_rb_t, ptr %8, i32 0, i32 1
  %10 = getelementptr inbounds nuw %struct._lv_rb_t, ptr %9, i32 0, i32 2
  %11 = load i64, ptr %10, align 8, !tbaa !33
  %12 = getelementptr inbounds nuw i8, ptr %7, i64 %11
  %13 = getelementptr inbounds i8, ptr %12, i64 -8
  ret ptr %13
}

; Function Attrs: nounwind uwtable
define internal ptr @get_cb(ptr noundef %0, ptr noundef %1, ptr noundef %2) #0 {
  %4 = alloca ptr, align 8
  %5 = alloca ptr, align 8
  %6 = alloca ptr, align 8
  %7 = alloca ptr, align 8
  %8 = alloca ptr, align 8
  %9 = alloca i32, align 4
  %10 = alloca ptr, align 8
  %11 = alloca ptr, align 8
  %12 = alloca ptr, align 8
  %13 = alloca ptr, align 8
  %14 = alloca ptr, align 8
  %15 = alloca ptr, align 8
  %16 = alloca ptr, align 8
  store ptr %0, ptr %5, align 8, !tbaa !3
  store ptr %1, ptr %6, align 8, !tbaa !3
  store ptr %2, ptr %7, align 8, !tbaa !3
  call void @llvm.lifetime.start.p0(i64 8, ptr %8) #4
  %17 = load ptr, ptr %5, align 8, !tbaa !3
  store ptr %17, ptr %8, align 8, !tbaa !3
  br label %18

18:                                               ; preds = %3
  %19 = load ptr, ptr %8, align 8, !tbaa !3
  %20 = icmp ne ptr %19, null
  br i1 %20, label %27, label %21

21:                                               ; preds = %18
  br label %22

22:                                               ; preds = %21
  br label %23

23:                                               ; preds = %22
  br label %24

24:                                               ; preds = %23
  br label %25

25:                                               ; preds = %26, %24
  br label %26

26:                                               ; preds = %25
  br label %25

27:                                               ; preds = %18
  br label %28

28:                                               ; preds = %27
  br label %29

29:                                               ; preds = %28
  br label %30

30:                                               ; preds = %29
  %31 = load ptr, ptr %6, align 8, !tbaa !3
  %32 = icmp ne ptr %31, null
  br i1 %32, label %39, label %33

33:                                               ; preds = %30
  br label %34

34:                                               ; preds = %33
  br label %35

35:                                               ; preds = %34
  br label %36

36:                                               ; preds = %35
  br label %37

37:                                               ; preds = %38, %36
  br label %38

38:                                               ; preds = %37
  br label %37

39:                                               ; preds = %30
  br label %40

40:                                               ; preds = %39
  br label %41

41:                                               ; preds = %40
  %42 = load ptr, ptr %8, align 8, !tbaa !3
  %43 = icmp eq ptr %42, null
  br i1 %43, label %47, label %44

44:                                               ; preds = %41
  %45 = load ptr, ptr %6, align 8, !tbaa !3
  %46 = icmp eq ptr %45, null
  br i1 %46, label %47, label %48

47:                                               ; preds = %44, %41
  store ptr null, ptr %4, align 8
  store i32 1, ptr %9, align 4
  br label %111

48:                                               ; preds = %44
  call void @llvm.lifetime.start.p0(i64 8, ptr %10) #4
  %49 = load ptr, ptr %8, align 8, !tbaa !3
  %50 = getelementptr inbounds nuw %struct._lv_lru_rb_t, ptr %49, i32 0, i32 2
  %51 = call ptr @lv_ll_get_head(ptr noundef %50)
  store ptr %51, ptr %10, align 8, !tbaa !3
  %52 = load ptr, ptr %10, align 8, !tbaa !3
  %53 = icmp ne ptr %52, null
  br i1 %53, label %54, label %81

54:                                               ; preds = %48
  call void @llvm.lifetime.start.p0(i64 8, ptr %11) #4
  %55 = load ptr, ptr %10, align 8, !tbaa !3
  %56 = load ptr, ptr %55, align 8, !tbaa !3
  store ptr %56, ptr %11, align 8, !tbaa !3
  call void @llvm.lifetime.start.p0(i64 8, ptr %12) #4
  %57 = load ptr, ptr %11, align 8, !tbaa !3
  %58 = getelementptr inbounds nuw %struct._lv_rb_node_t, ptr %57, i32 0, i32 4
  %59 = load ptr, ptr %58, align 8, !tbaa !21
  store ptr %59, ptr %12, align 8, !tbaa !3
  call void @llvm.lifetime.start.p0(i64 8, ptr %13) #4
  %60 = load ptr, ptr %12, align 8, !tbaa !3
  %61 = load ptr, ptr %5, align 8, !tbaa !3
  %62 = getelementptr inbounds nuw %struct._lv_cache_t, ptr %61, i32 0, i32 1
  %63 = load i32, ptr %62, align 8, !tbaa !23
  %64 = call ptr @lv_cache_entry_get_entry(ptr noundef %60, i32 noundef %63)
  store ptr %64, ptr %13, align 8, !tbaa !3
  %65 = load ptr, ptr %8, align 8, !tbaa !3
  %66 = getelementptr inbounds nuw %struct._lv_lru_rb_t, ptr %65, i32 0, i32 0
  %67 = getelementptr inbounds nuw %struct._lv_cache_t, ptr %66, i32 0, i32 4
  %68 = getelementptr inbounds nuw %struct._lv_cache_ops_t, ptr %67, i32 0, i32 0
  %69 = load ptr, ptr %68, align 8, !tbaa !7
  %70 = load ptr, ptr %12, align 8, !tbaa !3
  %71 = load ptr, ptr %6, align 8, !tbaa !3
  %72 = call signext i8 %69(ptr noundef %70, ptr noundef %71)
  %73 = sext i8 %72 to i32
  %74 = icmp eq i32 %73, 0
  br i1 %74, label %75, label %77

75:                                               ; preds = %54
  %76 = load ptr, ptr %13, align 8, !tbaa !3
  store ptr %76, ptr %4, align 8
  store i32 1, ptr %9, align 4
  br label %78

77:                                               ; preds = %54
  store i32 0, ptr %9, align 4
  br label %78

78:                                               ; preds = %77, %75
  call void @llvm.lifetime.end.p0(i64 8, ptr %13) #4
  call void @llvm.lifetime.end.p0(i64 8, ptr %12) #4
  call void @llvm.lifetime.end.p0(i64 8, ptr %11) #4
  %79 = load i32, ptr %9, align 4
  switch i32 %79, label %110 [
    i32 0, label %80
  ]

80:                                               ; preds = %78
  br label %81

81:                                               ; preds = %80, %48
  call void @llvm.lifetime.start.p0(i64 8, ptr %14) #4
  %82 = load ptr, ptr %8, align 8, !tbaa !3
  %83 = getelementptr inbounds nuw %struct._lv_lru_rb_t, ptr %82, i32 0, i32 1
  %84 = load ptr, ptr %6, align 8, !tbaa !3
  %85 = call ptr @lv_rb_find(ptr noundef %83, ptr noundef %84)
  store ptr %85, ptr %14, align 8, !tbaa !3
  %86 = load ptr, ptr %14, align 8, !tbaa !3
  %87 = icmp ne ptr %86, null
  br i1 %87, label %88, label %108

88:                                               ; preds = %81
  call void @llvm.lifetime.start.p0(i64 8, ptr %15) #4
  %89 = load ptr, ptr %8, align 8, !tbaa !3
  %90 = load ptr, ptr %14, align 8, !tbaa !3
  %91 = call ptr @get_lru_node(ptr noundef %89, ptr noundef %90)
  %92 = load ptr, ptr %91, align 8, !tbaa !3
  store ptr %92, ptr %15, align 8, !tbaa !3
  %93 = load ptr, ptr %8, align 8, !tbaa !3
  %94 = getelementptr inbounds nuw %struct._lv_lru_rb_t, ptr %93, i32 0, i32 2
  %95 = call ptr @lv_ll_get_head(ptr noundef %94)
  store ptr %95, ptr %10, align 8, !tbaa !3
  %96 = load ptr, ptr %8, align 8, !tbaa !3
  %97 = getelementptr inbounds nuw %struct._lv_lru_rb_t, ptr %96, i32 0, i32 2
  %98 = load ptr, ptr %15, align 8, !tbaa !3
  %99 = load ptr, ptr %10, align 8, !tbaa !3
  call void @lv_ll_move_before(ptr noundef %97, ptr noundef %98, ptr noundef %99)
  call void @llvm.lifetime.start.p0(i64 8, ptr %16) #4
  %100 = load ptr, ptr %14, align 8, !tbaa !3
  %101 = getelementptr inbounds nuw %struct._lv_rb_node_t, ptr %100, i32 0, i32 4
  %102 = load ptr, ptr %101, align 8, !tbaa !21
  %103 = load ptr, ptr %5, align 8, !tbaa !3
  %104 = getelementptr inbounds nuw %struct._lv_cache_t, ptr %103, i32 0, i32 1
  %105 = load i32, ptr %104, align 8, !tbaa !23
  %106 = call ptr @lv_cache_entry_get_entry(ptr noundef %102, i32 noundef %105)
  store ptr %106, ptr %16, align 8, !tbaa !3
  %107 = load ptr, ptr %16, align 8, !tbaa !3
  store ptr %107, ptr %4, align 8
  store i32 1, ptr %9, align 4
  call void @llvm.lifetime.end.p0(i64 8, ptr %16) #4
  call void @llvm.lifetime.end.p0(i64 8, ptr %15) #4
  br label %109

108:                                              ; preds = %81
  store ptr null, ptr %4, align 8
  store i32 1, ptr %9, align 4
  br label %109

109:                                              ; preds = %108, %88
  call void @llvm.lifetime.end.p0(i64 8, ptr %14) #4
  br label %110

110:                                              ; preds = %109, %78
  call void @llvm.lifetime.end.p0(i64 8, ptr %10) #4
  br label %111

111:                                              ; preds = %110, %47
  call void @llvm.lifetime.end.p0(i64 8, ptr %8) #4
  %112 = load ptr, ptr %4, align 8
  ret ptr %112
}