; Function Attrs: nounwind uwtable
define internal ptr @get_cb(ptr noundef %0, ptr noundef %1, ptr nocapture readnone %2) #0 {
  %.not = icmp eq ptr %0, null
  br i1 %.not, label %.preheader, label %4

.preheader:                                       ; preds = %3, %.preheader
  br label %.preheader

4:                                                ; preds = %3
  %.not34 = icmp eq ptr %1, null
  br i1 %.not34, label %.preheader39, label %5

.preheader39:                                     ; preds = %4, %.preheader39
  br label %.preheader39

5:                                                ; preds = %4
  %6 = getelementptr inbounds nuw i8, ptr %0, i64 88
  %7 = tail call ptr @lv_ll_get_head(ptr noundef nonnull %6) #5
  %.not35 = icmp eq ptr %7, null
  br i1 %.not35, label %18, label %8

8:                                                ; preds = %5
  %9 = load ptr, ptr %7, align 8, !tbaa !20
  %10 = getelementptr inbounds nuw i8, ptr %9, i64 32
  %11 = load ptr, ptr %10, align 8, !tbaa !21
  %12 = getelementptr inbounds nuw i8, ptr %0, i64 8
  %13 = load i32, ptr %12, align 8, !tbaa !23
  %14 = tail call ptr @lv_cache_entry_get_entry(ptr noundef %11, i32 noundef %13) #5
  %15 = getelementptr inbounds nuw i8, ptr %0, i64 24
  %16 = load ptr, ptr %15, align 8, !tbaa !3
  %17 = tail call signext i8 %16(ptr noundef %11, ptr noundef nonnull %1) #5
  %.not36 = icmp eq i8 %17, 0
  br i1 %.not36, label %32, label %18

18:                                               ; preds = %8, %5
  %19 = getelementptr inbounds nuw i8, ptr %0, i64 64
  %20 = tail call ptr @lv_rb_find(ptr noundef nonnull %19, ptr noundef nonnull %1) #5
  %.not37 = icmp eq ptr %20, null
  br i1 %.not37, label %32, label %21

21:                                               ; preds = %18
  %22 = getelementptr i8, ptr %0, i64 80
  %.val = load i64, ptr %22, align 8, !tbaa !24
  %23 = getelementptr i8, ptr %20, i64 32
  %.val38 = load ptr, ptr %23, align 8, !tbaa !21
  %24 = getelementptr inbounds nuw i8, ptr %.val38, i64 %.val
  %25 = getelementptr inbounds i8, ptr %24, i64 -8
  %26 = load ptr, ptr %25, align 8, !tbaa !20
  %27 = tail call ptr @lv_ll_get_head(ptr noundef nonnull %6) #5
  tail call void @lv_ll_move_before(ptr noundef nonnull %6, ptr noundef %26, ptr noundef %27) #5
  %28 = load ptr, ptr %23, align 8, !tbaa !21
  %29 = getelementptr inbounds nuw i8, ptr %0, i64 8
  %30 = load i32, ptr %29, align 8, !tbaa !23
  %31 = tail call ptr @lv_cache_entry_get_entry(ptr noundef %28, i32 noundef %30) #5
  br label %32

32:                                               ; preds = %8, %18, %21
  %.2 = phi ptr [ %14, %8 ], [ %31, %21 ], [ null, %18 ]
  ret ptr %.2
}